$ arm-none-eabi-objdump -d test.elf

test.elf:     file format elf32-littlearm


Disassembly of section .text:

08000000 <__isr_vector>:
 8000000:	20008000 	.word	0x20008000
 8000004:	080002c9 	.word	0x080002c9
 8000008:	0800030b 	.word	0x0800030b
 800000c:	0800030d 	.word	0x0800030d
 8000010:	0800030f 	.word	0x0800030f
 8000014:	08000311 	.word	0x08000311
 8000018:	08000313 	.word	0x08000313
	...
 800002c:	08000315 	.word	0x08000315
 8000030:	08000317 	.word	0x08000317
 8000034:	00000000 	.word	0x00000000
 8000038:	08000319 	.word	0x08000319
 800003c:	0800031b 	.word	0x0800031b
 8000040:	0800031d 	.word	0x0800031d
 8000044:	0800031f 	.word	0x0800031f
 8000048:	08000321 	.word	0x08000321
	...
 8000054:	08000323 	.word	0x08000323
 8000058:	08000325 	.word	0x08000325
 800005c:	08000327 	.word	0x08000327
 8000060:	08000329 	.word	0x08000329
 8000064:	00000000 	.word	0x00000000
 8000068:	0800032b 	.word	0x0800032b
 800006c:	0800032d 	.word	0x0800032d
 8000070:	0800032f 	.word	0x0800032f
 8000074:	00000000 	.word	0x00000000
 8000078:	08000331 	.word	0x08000331
 800007c:	08000333 	.word	0x08000333
 8000080:	08000335 	.word	0x08000335
 8000084:	08000337 	.word	0x08000337
 8000088:	00000000 	.word	0x00000000
 800008c:	08000339 	.word	0x08000339
 8000090:	0800033b 	.word	0x0800033b
	...
 80000ac:	0800033d 	.word	0x0800033d
 80000b0:	0800033f 	.word	0x0800033f
 80000b4:	08000341 	.word	0x08000341
 80000b8:	08000343 	.word	0x08000343
 80000bc:	08000345 	.word	0x08000345

080000c0 <_Z4initv>:
 80000c0:	b508      	push	{r3, lr}
 80000c2:	f44f 7000 	mov.w	r0, #512	; 0x200
 80000c6:	2101      	movs	r1, #1
 80000c8:	f000 f84a 	bl	8000160 <_Z7pinInitii>
 80000cc:	f240 2001 	movw	r0, #513	; 0x201
 80000d0:	2101      	movs	r1, #1
 80000d2:	f000 f845 	bl	8000160 <_Z7pinInitii>
 80000d6:	f240 2002 	movw	r0, #514	; 0x202
 80000da:	2101      	movs	r1, #1
 80000dc:	f000 f840 	bl	8000160 <_Z7pinInitii>
 80000e0:	f240 2003 	movw	r0, #515	; 0x203
 80000e4:	2101      	movs	r1, #1
 80000e6:	f000 f83b 	bl	8000160 <_Z7pinInitii>
 80000ea:	bd08      	pop	{r3, pc}

080000ec <_Z5cyclev>:
 80000ec:	b508      	push	{r3, lr}
 80000ee:	f000 f887 	bl	8000200 <_Z5delayv>
 80000f2:	f000 f885 	bl	8000200 <_Z5delayv>
 80000f6:	f000 f883 	bl	8000200 <_Z5delayv>
 80000fa:	f000 f881 	bl	8000200 <_Z5delayv>
 80000fe:	4b02      	ldr	r3, [pc, #8]	; (8000108 <_Z5cyclev+0x1c>)
 8000100:	681a      	ldr	r2, [r3, #0]
 8000102:	4b02      	ldr	r3, [pc, #8]	; (800010c <_Z5cyclev+0x20>)
 8000104:	601a      	str	r2, [r3, #0]
 8000106:	bd08      	pop	{r3, pc}
 8000108:	20000004 	.word	0x20000004
 800010c:	400b0000 	.word	0x400b0000

08000110 <_Z11Timer1_Initv>:
 8000110:	4b0c      	ldr	r3, [pc, #48]	; (8000144 <_Z11Timer1_Initv+0x34>)
 8000112:	69da      	ldr	r2, [r3, #28]
 8000114:	f442 4280 	orr.w	r2, r2, #16384	; 0x4000
 8000118:	61da      	str	r2, [r3, #28]
 800011a:	4a0b      	ldr	r2, [pc, #44]	; (8000148 <_Z11Timer1_Initv+0x38>)
 800011c:	625a      	str	r2, [r3, #36]	; 0x24
 800011e:	f503 23a0 	add.w	r3, r3, #327680	; 0x50000
 8000122:	f240 32e7 	movw	r2, #999	; 0x3e7
 8000126:	605a      	str	r2, [r3, #4]
 8000128:	609a      	str	r2, [r3, #8]
 800012a:	6d9a      	ldr	r2, [r3, #88]	; 0x58
 800012c:	f042 0202 	orr.w	r2, r2, #2
 8000130:	659a      	str	r2, [r3, #88]	; 0x58
 8000132:	68da      	ldr	r2, [r3, #12]
 8000134:	f042 0201 	orr.w	r2, r2, #1
 8000138:	60da      	str	r2, [r3, #12]
 800013a:	f44f 4280 	mov.w	r2, #16384	; 0x4000
 800013e:	4b03      	ldr	r3, [pc, #12]	; (800014c <_Z11Timer1_Initv+0x3c>)
 8000140:	601a      	str	r2, [r3, #0]
 8000142:	4770      	bx	lr
 8000144:	40020000 	.word	0x40020000
 8000148:	01000003 	.word	0x01000003
 800014c:	e000e100 	.word	0xe000e100

08000150 <_Z18ports_clock_enablev>:
 8000150:	4a01      	ldr	r2, [pc, #4]	; (8000158 <_Z18ports_clock_enablev+0x8>)
 8000152:	4b02      	ldr	r3, [pc, #8]	; (800015c <_Z18ports_clock_enablev+0xc>)
 8000154:	61da      	str	r2, [r3, #28]
 8000156:	4770      	bx	lr
 8000158:	23e00000 	.word	0x23e00000
 800015c:	40020000 	.word	0x40020000

08000160 <_Z7pinInitii>:
 8000160:	b538      	push	{r3, r4, r5, lr}
 8000162:	4604      	mov	r4, r0
 8000164:	460d      	mov	r5, r1
 8000166:	f3c0 2007 	ubfx	r0, r0, #8, #8
 800016a:	f000 f827 	bl	80001bc <_Z13port_from_pinh>
 800016e:	4603      	mov	r3, r0
 8000170:	2d01      	cmp	r5, #1
 8000172:	d119      	bne.n	80001a8 <_Z7pinInitii+0x48>
 8000174:	6842      	ldr	r2, [r0, #4]
 8000176:	b264      	sxtb	r4, r4
 8000178:	2001      	movs	r0, #1
 800017a:	fa00 f104 	lsl.w	r1, r0, r4
 800017e:	430a      	orrs	r2, r1
 8000180:	605a      	str	r2, [r3, #4]
 8000182:	689a      	ldr	r2, [r3, #8]
 8000184:	2200      	movs	r2, #0
 8000186:	609a      	str	r2, [r3, #8]
 8000188:	68dd      	ldr	r5, [r3, #12]
 800018a:	430d      	orrs	r5, r1
 800018c:	60dd      	str	r5, [r3, #12]
 800018e:	691d      	ldr	r5, [r3, #16]
 8000190:	ea45 4101 	orr.w	r1, r5, r1, lsl #16
 8000194:	6119      	str	r1, [r3, #16]
 8000196:	6959      	ldr	r1, [r3, #20]
 8000198:	615a      	str	r2, [r3, #20]
 800019a:	6999      	ldr	r1, [r3, #24]
 800019c:	4084      	lsls	r4, r0
 800019e:	40a0      	lsls	r0, r4
 80001a0:	4308      	orrs	r0, r1
 80001a2:	6198      	str	r0, [r3, #24]
 80001a4:	69d9      	ldr	r1, [r3, #28]
 80001a6:	61da      	str	r2, [r3, #28]
 80001a8:	bd38      	pop	{r3, r4, r5, pc}
 80001aa:	bf00      	nop

080001ac <_Z9mila_initv>:
 80001ac:	b508      	push	{r3, lr}
 80001ae:	b662      	cpsie	i
 80001b0:	f7ff ffce 	bl	8000150 <_Z18ports_clock_enablev>
 80001b4:	f7ff ffac 	bl	8000110 <_Z11Timer1_Initv>
 80001b8:	bd08      	pop	{r3, pc}
 80001ba:	bf00      	nop

080001bc <_Z13port_from_pinh>:
 80001bc:	3801      	subs	r0, #1
 80001be:	2805      	cmp	r0, #5
 80001c0:	d80c      	bhi.n	80001dc <_Z13port_from_pinh+0x20>
 80001c2:	e8df f000 	tbb	[pc, r0]
 80001c6:	0e0c      	.short	0x0e0c
 80001c8:	09070503 	.word	0x09070503
 80001cc:	4806      	ldr	r0, [pc, #24]	; (80001e8 <_Z13port_from_pinh+0x2c>)
 80001ce:	4770      	bx	lr
 80001d0:	4806      	ldr	r0, [pc, #24]	; (80001ec <_Z13port_from_pinh+0x30>)
 80001d2:	4770      	bx	lr
 80001d4:	4806      	ldr	r0, [pc, #24]	; (80001f0 <_Z13port_from_pinh+0x34>)
 80001d6:	4770      	bx	lr
 80001d8:	4806      	ldr	r0, [pc, #24]	; (80001f4 <_Z13port_from_pinh+0x38>)
 80001da:	4770      	bx	lr
 80001dc:	4770      	bx	lr
 80001de:	4806      	ldr	r0, [pc, #24]	; (80001f8 <_Z13port_from_pinh+0x3c>)
 80001e0:	4770      	bx	lr
 80001e2:	4806      	ldr	r0, [pc, #24]	; (80001fc <_Z13port_from_pinh+0x40>)
 80001e4:	4770      	bx	lr
 80001e6:	bf00      	nop
 80001e8:	400b8000 	.word	0x400b8000
 80001ec:	400c0000 	.word	0x400c0000
 80001f0:	400c8000 	.word	0x400c8000
 80001f4:	400e8000 	.word	0x400e8000
 80001f8:	400a8000 	.word	0x400a8000
 80001fc:	400b0000 	.word	0x400b0000

08000200 <_Z5delayv>:
 8000200:	220a      	movs	r2, #10
 8000202:	f64e 2160 	movw	r1, #60000	; 0xea60
 8000206:	e006      	b.n	8000216 <_Z5delayv+0x16>
 8000208:	3b01      	subs	r3, #1
 800020a:	b29b      	uxth	r3, r3
 800020c:	2b00      	cmp	r3, #0
 800020e:	d1fb      	bne.n	8000208 <_Z5delayv+0x8>
 8000210:	3a01      	subs	r2, #1
 8000212:	b292      	uxth	r2, r2
 8000214:	b10a      	cbz	r2, 800021a <_Z5delayv+0x1a>
 8000216:	460b      	mov	r3, r1
 8000218:	e7f6      	b.n	8000208 <_Z5delayv+0x8>
 800021a:	4770      	bx	lr

0800021c <SystemCoreClockUpdate>:
 800021c:	4b1b      	ldr	r3, [pc, #108]	; (800028c <SystemCoreClockUpdate+0x70>)
 800021e:	68da      	ldr	r2, [r3, #12]
 8000220:	68da      	ldr	r2, [r3, #12]
 8000222:	f002 0201 	and.w	r2, r2, #1
 8000226:	4b1a      	ldr	r3, [pc, #104]	; (8000290 <SystemCoreClockUpdate+0x74>)
 8000228:	491a      	ldr	r1, [pc, #104]	; (8000294 <SystemCoreClockUpdate+0x78>)
 800022a:	2a00      	cmp	r2, #0
 800022c:	bf14      	ite	ne
 800022e:	460a      	movne	r2, r1
 8000230:	461a      	moveq	r2, r3
 8000232:	4b16      	ldr	r3, [pc, #88]	; (800028c <SystemCoreClockUpdate+0x70>)
 8000234:	68db      	ldr	r3, [r3, #12]
 8000236:	f013 0f04 	tst.w	r3, #4
 800023a:	d005      	beq.n	8000248 <SystemCoreClockUpdate+0x2c>
 800023c:	4b13      	ldr	r3, [pc, #76]	; (800028c <SystemCoreClockUpdate+0x70>)
 800023e:	685b      	ldr	r3, [r3, #4]
 8000240:	f3c3 2303 	ubfx	r3, r3, #8, #4
 8000244:	fb03 2202 	mla	r2, r3, r2, r2
 8000248:	4b10      	ldr	r3, [pc, #64]	; (800028c <SystemCoreClockUpdate+0x70>)
 800024a:	68db      	ldr	r3, [r3, #12]
 800024c:	f3c3 2301 	ubfx	r3, r3, #8, #2
 8000250:	2b01      	cmp	r3, #1
 8000252:	d007      	beq.n	8000264 <SystemCoreClockUpdate+0x48>
 8000254:	b113      	cbz	r3, 800025c <SystemCoreClockUpdate+0x40>
 8000256:	2b02      	cmp	r3, #2
 8000258:	d00e      	beq.n	8000278 <SystemCoreClockUpdate+0x5c>
 800025a:	e012      	b.n	8000282 <SystemCoreClockUpdate+0x66>
 800025c:	4a0c      	ldr	r2, [pc, #48]	; (8000290 <SystemCoreClockUpdate+0x74>)
 800025e:	4b0e      	ldr	r3, [pc, #56]	; (8000298 <SystemCoreClockUpdate+0x7c>)
 8000260:	601a      	str	r2, [r3, #0]
 8000262:	4770      	bx	lr
 8000264:	4b09      	ldr	r3, [pc, #36]	; (800028c <SystemCoreClockUpdate+0x70>)
 8000266:	68db      	ldr	r3, [r3, #12]
 8000268:	f3c3 1303 	ubfx	r3, r3, #4, #4
 800026c:	3301      	adds	r3, #1
 800026e:	fbb2 f2f3 	udiv	r2, r2, r3
 8000272:	4b09      	ldr	r3, [pc, #36]	; (8000298 <SystemCoreClockUpdate+0x7c>)
 8000274:	601a      	str	r2, [r3, #0]
 8000276:	4770      	bx	lr
 8000278:	f44f 4200 	mov.w	r2, #32768	; 0x8000
 800027c:	4b06      	ldr	r3, [pc, #24]	; (8000298 <SystemCoreClockUpdate+0x7c>)
 800027e:	601a      	str	r2, [r3, #0]
 8000280:	4770      	bx	lr
 8000282:	f649 4240 	movw	r2, #40000	; 0x9c40
 8000286:	4b04      	ldr	r3, [pc, #16]	; (8000298 <SystemCoreClockUpdate+0x7c>)
 8000288:	601a      	str	r2, [r3, #0]
 800028a:	4770      	bx	lr
 800028c:	40020000 	.word	0x40020000
 8000290:	007a1200 	.word	0x007a1200
 8000294:	003d0900 	.word	0x003d0900
 8000298:	20000000 	.word	0x20000000

0800029c <SystemInit>:
 800029c:	b508      	push	{r3, lr}
 800029e:	4b08      	ldr	r3, [pc, #32]	; (80002c0 <SystemInit+0x24>)
 80002a0:	4a08      	ldr	r2, [pc, #32]	; (80002c4 <SystemInit+0x28>)
 80002a2:	61da      	str	r2, [r3, #28]
 80002a4:	68da      	ldr	r2, [r3, #12]
 80002a6:	2200      	movs	r2, #0
 80002a8:	60da      	str	r2, [r3, #12]
 80002aa:	6859      	ldr	r1, [r3, #4]
 80002ac:	605a      	str	r2, [r3, #4]
 80002ae:	6899      	ldr	r1, [r3, #8]
 80002b0:	609a      	str	r2, [r3, #8]
 80002b2:	6919      	ldr	r1, [r3, #16]
 80002b4:	611a      	str	r2, [r3, #16]
 80002b6:	6959      	ldr	r1, [r3, #20]
 80002b8:	615a      	str	r2, [r3, #20]
 80002ba:	f7ff ffaf 	bl	800021c <SystemCoreClockUpdate>
 80002be:	bd08      	pop	{r3, pc}
 80002c0:	40020000 	.word	0x40020000
 80002c4:	08000010 	.word	0x08000010

080002c8 <Reset_Handler>:
 80002c8:	4906      	ldr	r1, [pc, #24]	; (80002e4 <Reset_Handler+0x1c>)
 80002ca:	4a07      	ldr	r2, [pc, #28]	; (80002e8 <Reset_Handler+0x20>)
 80002cc:	4b07      	ldr	r3, [pc, #28]	; (80002ec <Reset_Handler+0x24>)
 80002ce:	f000 f815 	bl	80002fc <copy_to_ram>
 80002d2:	4907      	ldr	r1, [pc, #28]	; (80002f0 <Reset_Handler+0x28>)
 80002d4:	4a07      	ldr	r2, [pc, #28]	; (80002f4 <Reset_Handler+0x2c>)
 80002d6:	4b08      	ldr	r3, [pc, #32]	; (80002f8 <Reset_Handler+0x30>)
 80002d8:	f000 f810 	bl	80002fc <copy_to_ram>
 80002dc:	f7ff ffde 	bl	800029c <SystemInit>
 80002e0:	f000 f832 	bl	8000348 <main>
 80002e4:	08000358 	.word	0x08000358
 80002e8:	20000000 	.word	0x20000000
 80002ec:	20000004 	.word	0x20000004
 80002f0:	0800035c 	.word	0x0800035c
 80002f4:	20000004 	.word	0x20000004
 80002f8:	20000004 	.word	0x20000004

080002fc <copy_to_ram>:
 80002fc:	1a9b      	subs	r3, r3, r2
 80002fe:	dd03      	ble.n	8000308 <copy_to_ram+0xc>
 8000300:	3b04      	subs	r3, #4
 8000302:	58c8      	ldr	r0, [r1, r3]
 8000304:	50d0      	str	r0, [r2, r3]
 8000306:	dcfb      	bgt.n	8000300 <copy_to_ram+0x4>
 8000308:	4770      	bx	lr

0800030a <NMI_Handler>:
 800030a:	e7fe      	b.n	800030a <NMI_Handler>

0800030c <HardFault_Handler>:
 800030c:	e7fe      	b.n	800030c <HardFault_Handler>

0800030e <MemManage_Handler>:
 800030e:	e7fe      	b.n	800030e <MemManage_Handler>

08000310 <BusFault_Handler>:
 8000310:	e7fe      	b.n	8000310 <BusFault_Handler>

08000312 <UsageFault_Handler>:
 8000312:	e7fe      	b.n	8000312 <UsageFault_Handler>

08000314 <SVC_Handler>:
 8000314:	e7fe      	b.n	8000314 <SVC_Handler>

08000316 <DebugMon_Handler>:
 8000316:	e7fe      	b.n	8000316 <DebugMon_Handler>

08000318 <PendSV_Handler>:
 8000318:	e7fe      	b.n	8000318 <PendSV_Handler>

0800031a <SysTick_Handler>:
 800031a:	e7fe      	b.n	800031a <SysTick_Handler>

0800031c <CAN1_IRQHandler>:
 800031c:	e7fe      	b.n	800031c <CAN1_IRQHandler>

0800031e <CAN2_IRQHandler>:
 800031e:	e7fe      	b.n	800031e <CAN2_IRQHandler>

08000320 <USB_IRQHandler>:
 8000320:	e7fe      	b.n	8000320 <USB_IRQHandler>

08000322 <DMA_IRQHandler>:
 8000322:	e7fe      	b.n	8000322 <DMA_IRQHandler>

08000324 <UART1_IRQHandler>:
 8000324:	e7fe      	b.n	8000324 <UART1_IRQHandler>

08000326 <UART2_IRQHandler>:
 8000326:	e7fe      	b.n	8000326 <UART2_IRQHandler>

08000328 <SSP1_IRQHandler>:
 8000328:	e7fe      	b.n	8000328 <SSP1_IRQHandler>

0800032a <I2C_IRQHandler>:
 800032a:	e7fe      	b.n	800032a <I2C_IRQHandler>

0800032c <POWER_IRQHandler>:
 800032c:	e7fe      	b.n	800032c <POWER_IRQHandler>

0800032e <WWDG_IRQHandler>:
 800032e:	e7fe      	b.n	800032e <WWDG_IRQHandler>

08000330 <Timer1_IRQHandler>:
 8000330:	e7fe      	b.n	8000330 <Timer1_IRQHandler>

08000332 <Timer2_IRQHandler>:
 8000332:	e7fe      	b.n	8000332 <Timer2_IRQHandler>

08000334 <Timer3_IRQHandler>:
 8000334:	e7fe      	b.n	8000334 <Timer3_IRQHandler>

08000336 <ADC_IRQHandler>:
 8000336:	e7fe      	b.n	8000336 <ADC_IRQHandler>

08000338 <COMPARATOR_IRQHandler>:
 8000338:	e7fe      	b.n	8000338 <COMPARATOR_IRQHandler>

0800033a <SSP2_IRQHandler>:
 800033a:	e7fe      	b.n	800033a <SSP2_IRQHandler>

0800033c <BACKUP_IRQHandler>:
 800033c:	e7fe      	b.n	800033c <BACKUP_IRQHandler>

0800033e <EXT_INT1_IRQHandler>:
 800033e:	e7fe      	b.n	800033e <EXT_INT1_IRQHandler>

08000340 <EXT_INT2_IRQHandler>:
 8000340:	e7fe      	b.n	8000340 <EXT_INT2_IRQHandler>

08000342 <EXT_INT3_IRQHandler>:
 8000342:	e7fe      	b.n	8000342 <EXT_INT3_IRQHandler>

08000344 <EXT_INT4_IRQHandler>:
 8000344:	e7fe      	b.n	8000344 <EXT_INT4_IRQHandler>
 8000346:	bf00      	nop

08000348 <main>:
 8000348:	b508      	push	{r3, lr}
 800034a:	f7ff ff2f 	bl	80001ac <_Z9mila_initv>
 800034e:	f7ff feb7 	bl	80000c0 <_Z4initv>
 8000352:	f7ff fecb 	bl	80000ec <_Z5cyclev>
 8000356:	e7fc      	b.n	8000352 <main+0xa>
