
second.elf:     file format elf32-littlearm


Disassembly of section .text:

08000000 <__isr_vector>:
 8000000:	8000      	strh	r0, [r0, #0]
 8000002:	2000      	movs	r0, #0
 8000004:	016d      	lsls	r5, r5, #5
 8000006:	0800      	lsrs	r0, r0, #32
 8000008:	01ab      	lsls	r3, r5, #6
 800000a:	0800      	lsrs	r0, r0, #32
 800000c:	01ad      	lsls	r5, r5, #6
 800000e:	0800      	lsrs	r0, r0, #32
 8000010:	01af      	lsls	r7, r5, #6
 8000012:	0800      	lsrs	r0, r0, #32
 8000014:	01b1      	lsls	r1, r6, #6
 8000016:	0800      	lsrs	r0, r0, #32
 8000018:	01b3      	lsls	r3, r6, #6
 800001a:	0800      	lsrs	r0, r0, #32
	...
 800002c:	01b5      	lsls	r5, r6, #6
 800002e:	0800      	lsrs	r0, r0, #32
 8000030:	01b7      	lsls	r7, r6, #6
 8000032:	0800      	lsrs	r0, r0, #32
 8000034:	0000      	movs	r0, r0
 8000036:	0000      	movs	r0, r0
 8000038:	01b9      	lsls	r1, r7, #6
 800003a:	0800      	lsrs	r0, r0, #32
 800003c:	01bb      	lsls	r3, r7, #6
 800003e:	0800      	lsrs	r0, r0, #32
 8000040:	01bd      	lsls	r5, r7, #6
 8000042:	0800      	lsrs	r0, r0, #32
 8000044:	01bf      	lsls	r7, r7, #6
 8000046:	0800      	lsrs	r0, r0, #32
 8000048:	01c1      	lsls	r1, r0, #7
 800004a:	0800      	lsrs	r0, r0, #32
	...
 8000054:	01c3      	lsls	r3, r0, #7
 8000056:	0800      	lsrs	r0, r0, #32
 8000058:	01c5      	lsls	r5, r0, #7
 800005a:	0800      	lsrs	r0, r0, #32
 800005c:	01c7      	lsls	r7, r0, #7
 800005e:	0800      	lsrs	r0, r0, #32
 8000060:	01c9      	lsls	r1, r1, #7
 8000062:	0800      	lsrs	r0, r0, #32
 8000064:	0000      	movs	r0, r0
 8000066:	0000      	movs	r0, r0
 8000068:	01cb      	lsls	r3, r1, #7
 800006a:	0800      	lsrs	r0, r0, #32
 800006c:	01cd      	lsls	r5, r1, #7
 800006e:	0800      	lsrs	r0, r0, #32
 8000070:	01cf      	lsls	r7, r1, #7
 8000072:	0800      	lsrs	r0, r0, #32
 8000074:	0000      	movs	r0, r0
 8000076:	0000      	movs	r0, r0
 8000078:	01d1      	lsls	r1, r2, #7
 800007a:	0800      	lsrs	r0, r0, #32
 800007c:	01d3      	lsls	r3, r2, #7
 800007e:	0800      	lsrs	r0, r0, #32
 8000080:	01d5      	lsls	r5, r2, #7
 8000082:	0800      	lsrs	r0, r0, #32
 8000084:	01d7      	lsls	r7, r2, #7
 8000086:	0800      	lsrs	r0, r0, #32
 8000088:	0000      	movs	r0, r0
 800008a:	0000      	movs	r0, r0
 800008c:	01d9      	lsls	r1, r3, #7
 800008e:	0800      	lsrs	r0, r0, #32
 8000090:	01db      	lsls	r3, r3, #7
 8000092:	0800      	lsrs	r0, r0, #32
	...
 80000ac:	01dd      	lsls	r5, r3, #7
 80000ae:	0800      	lsrs	r0, r0, #32
 80000b0:	01df      	lsls	r7, r3, #7
 80000b2:	0800      	lsrs	r0, r0, #32
 80000b4:	01e1      	lsls	r1, r4, #7
 80000b6:	0800      	lsrs	r0, r0, #32
 80000b8:	01e3      	lsls	r3, r4, #7
 80000ba:	0800      	lsrs	r0, r0, #32
 80000bc:	01e5      	lsls	r5, r4, #7
 80000be:	0800      	lsrs	r0, r0, #32

080000c0 <SystemCoreClockUpdate>:
  uint32_t pll_mul;

  /* Compute CPU_CLK frequency */

  /* Determine CPU_C1 frequency */
  if ((MDR_RST_CLK->CPU_CLOCK & (uint32_t)0x00000002) == (uint32_t)0x00000002)
 80000c0:	4b1b      	ldr	r3, [pc, #108]	; (8000130 <SystemCoreClockUpdate+0x70>)
 80000c2:	68da      	ldr	r2, [r3, #12]
  else
  {
    cpu_c1_freq = HSI_Value;
  }

  if ((MDR_RST_CLK->CPU_CLOCK & (uint32_t)0x00000001) == (uint32_t)0x00000001)
 80000c4:	68da      	ldr	r2, [r3, #12]
 80000c6:	f002 0201 	and.w	r2, r2, #1
 80000ca:	4b1a      	ldr	r3, [pc, #104]	; (8000134 <SystemCoreClockUpdate+0x74>)
 80000cc:	491a      	ldr	r1, [pc, #104]	; (8000138 <SystemCoreClockUpdate+0x78>)
 80000ce:	2a00      	cmp	r2, #0
 80000d0:	bf14      	ite	ne
 80000d2:	460a      	movne	r2, r1
 80000d4:	461a      	moveq	r2, r3
  }

  /* Determine CPU_C2 frequency */
  cpu_c2_freq = cpu_c1_freq;

  if ((MDR_RST_CLK->CPU_CLOCK & (uint32_t)0x00000004) == (uint32_t)0x00000004)
 80000d6:	4b16      	ldr	r3, [pc, #88]	; (8000130 <SystemCoreClockUpdate+0x70>)
 80000d8:	68db      	ldr	r3, [r3, #12]
 80000da:	f013 0f04 	tst.w	r3, #4
 80000de:	d005      	beq.n	80000ec <SystemCoreClockUpdate+0x2c>
  {
    /* Determine CPU PLL output frequency */
    pll_mul = ((MDR_RST_CLK->PLL_CONTROL >> 8) & (uint32_t)0x0F) + 1;
 80000e0:	4b13      	ldr	r3, [pc, #76]	; (8000130 <SystemCoreClockUpdate+0x70>)
 80000e2:	685b      	ldr	r3, [r3, #4]
 80000e4:	f3c3 2303 	ubfx	r3, r3, #8, #4
    cpu_c2_freq *= pll_mul;
 80000e8:	fb03 2202 	mla	r2, r3, r2, r2
  }

  /*Select CPU_CLK from HSI, CPU_C3, LSE, LSI cases */
  switch ((MDR_RST_CLK->CPU_CLOCK >> 8) & (uint32_t)0x03)
 80000ec:	4b10      	ldr	r3, [pc, #64]	; (8000130 <SystemCoreClockUpdate+0x70>)
 80000ee:	68db      	ldr	r3, [r3, #12]
 80000f0:	f3c3 2301 	ubfx	r3, r3, #8, #2
 80000f4:	2b01      	cmp	r3, #1
 80000f6:	d007      	beq.n	8000108 <SystemCoreClockUpdate+0x48>
 80000f8:	b113      	cbz	r3, 8000100 <SystemCoreClockUpdate+0x40>
 80000fa:	2b02      	cmp	r3, #2
 80000fc:	d00e      	beq.n	800011c <SystemCoreClockUpdate+0x5c>
 80000fe:	e012      	b.n	8000126 <SystemCoreClockUpdate+0x66>
  {
    case 0 :
      /* HSI */
      SystemCoreClock = HSI_Value;
 8000100:	4a0c      	ldr	r2, [pc, #48]	; (8000134 <SystemCoreClockUpdate+0x74>)
 8000102:	4b0e      	ldr	r3, [pc, #56]	; (800013c <SystemCoreClockUpdate+0x7c>)
 8000104:	601a      	str	r2, [r3, #0]
      break;
 8000106:	4770      	bx	lr
    case 1 :
      /* CPU_C3 */
      /* Determine CPU_C3 frequency */
      cpu_c3_freq = cpu_c2_freq / ((MDR_RST_CLK->CPU_CLOCK >> 4 & (uint32_t)0x0F) + 1);
 8000108:	4b09      	ldr	r3, [pc, #36]	; (8000130 <SystemCoreClockUpdate+0x70>)
 800010a:	68db      	ldr	r3, [r3, #12]
 800010c:	f3c3 1303 	ubfx	r3, r3, #4, #4
 8000110:	3301      	adds	r3, #1
 8000112:	fbb2 f2f3 	udiv	r2, r2, r3
      SystemCoreClock = cpu_c3_freq;
 8000116:	4b09      	ldr	r3, [pc, #36]	; (800013c <SystemCoreClockUpdate+0x7c>)
 8000118:	601a      	str	r2, [r3, #0]
      break;
 800011a:	4770      	bx	lr
    case 2 :
      /* LSE */
      SystemCoreClock = LSE_Value;
 800011c:	f44f 4200 	mov.w	r2, #32768	; 0x8000
 8000120:	4b06      	ldr	r3, [pc, #24]	; (800013c <SystemCoreClockUpdate+0x7c>)
 8000122:	601a      	str	r2, [r3, #0]
      break;
 8000124:	4770      	bx	lr
    default : /* case 3 */
      /* LSI */
      SystemCoreClock = LSI_Value;
 8000126:	f649 4240 	movw	r2, #40000	; 0x9c40
 800012a:	4b04      	ldr	r3, [pc, #16]	; (800013c <SystemCoreClockUpdate+0x7c>)
 800012c:	601a      	str	r2, [r3, #0]
 800012e:	4770      	bx	lr
 8000130:	0000      	movs	r0, r0
 8000132:	4002      	ands	r2, r0
 8000134:	1200      	asrs	r0, r0, #8
 8000136:	007a      	lsls	r2, r7, #1
 8000138:	0900      	lsrs	r0, r0, #4
 800013a:	003d      	movs	r5, r7
 800013c:	0000      	movs	r0, r0
 800013e:	2000      	movs	r0, #0

08000140 <SystemInit>:
  * @note   This function should be used only after reset.
  * @param  None
  * @retval None
  */
void SystemInit (void)
{
 8000140:	b508      	push	{r3, lr}
	/* Reset the RST clock configuration to the default reset state */

  /* Reset all clock but RST_CLK & BKP_CLC bits */
  MDR_RST_CLK->PER_CLOCK   = (uint32_t)0x8000010;
 8000142:	4b08      	ldr	r3, [pc, #32]	; (8000164 <SystemInit+0x24>)
 8000144:	4a08      	ldr	r2, [pc, #32]	; (8000168 <SystemInit+0x28>)
 8000146:	61da      	str	r2, [r3, #28]

  /* Reset CPU_CLOCK bits */
  MDR_RST_CLK->CPU_CLOCK   &= (uint32_t)0x00000000;
 8000148:	68da      	ldr	r2, [r3, #12]
 800014a:	2200      	movs	r2, #0
 800014c:	60da      	str	r2, [r3, #12]

  /* Reset PLL_CONTROL bits */
  MDR_RST_CLK->PLL_CONTROL &= (uint32_t)0x00000000;
 800014e:	6859      	ldr	r1, [r3, #4]
 8000150:	605a      	str	r2, [r3, #4]

  /* Reset HSEON and HSEBYP bits */
  MDR_RST_CLK->HS_CONTROL  &= (uint32_t)0x00000000;
 8000152:	6899      	ldr	r1, [r3, #8]
 8000154:	609a      	str	r2, [r3, #8]

  /* Reset USB_CLOCK bits */
  MDR_RST_CLK->USB_CLOCK   &= (uint32_t)0x00000000;
 8000156:	6919      	ldr	r1, [r3, #16]
 8000158:	611a      	str	r2, [r3, #16]

  /* Reset ADC_MCO_CLOCK bits */
  MDR_RST_CLK->ADC_MCO_CLOCK   &= (uint32_t)0x00000000;
 800015a:	6959      	ldr	r1, [r3, #20]
 800015c:	615a      	str	r2, [r3, #20]

  SystemCoreClockUpdate();
 800015e:	f7ff ffaf 	bl	80000c0 <SystemCoreClockUpdate>
 8000162:	bd08      	pop	{r3, pc}
 8000164:	0000      	movs	r0, r0
 8000166:	4002      	ands	r2, r0
 8000168:	0010      	movs	r0, r2
 800016a:	0800      	lsrs	r0, r0, #32

0800016c <Reset_Handler>:
 *      linker script.
 *      __etext: End of code section, i.e., begin of data sections to copy from.
 *      __data_start__/__data_end__: RAM address range that data should be
 *      copied to. Both must be aligned to 4 bytes boundary.  */

    ldr    r1, =__etext
 800016c:	4905      	ldr	r1, [pc, #20]	; (8000184 <Reset_Handler+0x18>)
    ldr    r2, =__data_start__
 800016e:	4a06      	ldr	r2, [pc, #24]	; (8000188 <Reset_Handler+0x1c>)
    ldr    r3, =__data_end__
 8000170:	4b06      	ldr	r3, [pc, #24]	; (800018c <Reset_Handler+0x20>)

    bl     copy_to_ram
 8000172:	f000 f813 	bl	800019c <copy_to_ram>

/* Copy RAM functions from FLASH to RAM */
    ldr    r1, =__exec_mem__
 8000176:	4906      	ldr	r1, [pc, #24]	; (8000190 <Reset_Handler+0x24>)
    ldr    r2, =__exec_mem_start__
 8000178:	4a06      	ldr	r2, [pc, #24]	; (8000194 <Reset_Handler+0x28>)
    ldr    r3, =__exec_mem_end__
 800017a:	4b07      	ldr	r3, [pc, #28]	; (8000198 <Reset_Handler+0x2c>)

    bl     copy_to_ram
 800017c:	f000 f80e 	bl	800019c <copy_to_ram>
    strlt   r0, [r1], #4
    blt    .LC0
#endif /* __STARTUP_CLEAR_BSS */

#ifndef __NO_SYSTEM_INIT
    bl    SystemInit
 8000180:	f7ff ffde 	bl	8000140 <SystemInit>
 *      linker script.
 *      __etext: End of code section, i.e., begin of data sections to copy from.
 *      __data_start__/__data_end__: RAM address range that data should be
 *      copied to. Both must be aligned to 4 bytes boundary.  */

    ldr    r1, =__etext
 8000184:	01e8      	lsls	r0, r5, #7
 8000186:	0800      	lsrs	r0, r0, #32
    ldr    r2, =__data_start__
 8000188:	0000      	movs	r0, r0
 800018a:	2000      	movs	r0, #0
    ldr    r3, =__data_end__
 800018c:	0004      	movs	r4, r0
 800018e:	2000      	movs	r0, #0

    bl     copy_to_ram

/* Copy RAM functions from FLASH to RAM */
    ldr    r1, =__exec_mem__
 8000190:	01ec      	lsls	r4, r5, #7
 8000192:	0800      	lsrs	r0, r0, #32
    ldr    r2, =__exec_mem_start__
 8000194:	0004      	movs	r4, r0
 8000196:	2000      	movs	r0, #0
    ldr    r3, =__exec_mem_end__
 8000198:	0004      	movs	r4, r0
 800019a:	2000      	movs	r0, #0

0800019c <copy_to_ram>:
*/
    .thumb
    .thumb_func
    .align 2
copy_to_ram:
    subs    r3, r2
 800019c:	1a9b      	subs	r3, r3, r2
    ble    1f
 800019e:	dd03      	ble.n	80001a8 <copy_to_ram+0xc>
0:
    subs    r3, #4
 80001a0:	3b04      	subs	r3, #4
    ldr    r0, [r1, r3]
 80001a2:	58c8      	ldr	r0, [r1, r3]
    str    r0, [r2, r3]
 80001a4:	50d0      	str	r0, [r2, r3]
    bgt    0b
 80001a6:	dcfb      	bgt.n	80001a0 <copy_to_ram+0x4>
1:
    bx lr
 80001a8:	4770      	bx	lr

080001aa <NMI_Handler>:
\handler_name :
    b    .
    .size    \handler_name, . - \handler_name
    .endm
    
    def_default_handler    NMI_Handler
 80001aa:	e7fe      	b.n	80001aa <NMI_Handler>

080001ac <HardFault_Handler>:
    def_default_handler    HardFault_Handler
 80001ac:	e7fe      	b.n	80001ac <HardFault_Handler>

080001ae <MemManage_Handler>:
    def_default_handler    MemManage_Handler
 80001ae:	e7fe      	b.n	80001ae <MemManage_Handler>

080001b0 <BusFault_Handler>:
    def_default_handler    BusFault_Handler
 80001b0:	e7fe      	b.n	80001b0 <BusFault_Handler>

080001b2 <UsageFault_Handler>:
    def_default_handler    UsageFault_Handler
 80001b2:	e7fe      	b.n	80001b2 <UsageFault_Handler>

080001b4 <SVC_Handler>:
    def_default_handler    SVC_Handler
 80001b4:	e7fe      	b.n	80001b4 <SVC_Handler>

080001b6 <DebugMon_Handler>:
    def_default_handler    DebugMon_Handler
 80001b6:	e7fe      	b.n	80001b6 <DebugMon_Handler>

080001b8 <PendSV_Handler>:
    def_default_handler    PendSV_Handler
 80001b8:	e7fe      	b.n	80001b8 <PendSV_Handler>

080001ba <SysTick_Handler>:
    def_default_handler    SysTick_Handler
 80001ba:	e7fe      	b.n	80001ba <SysTick_Handler>

080001bc <CAN1_IRQHandler>:
    
    def_default_handler    CAN1_IRQHandler
 80001bc:	e7fe      	b.n	80001bc <CAN1_IRQHandler>

080001be <CAN2_IRQHandler>:
    def_default_handler    CAN2_IRQHandler
 80001be:	e7fe      	b.n	80001be <CAN2_IRQHandler>

080001c0 <USB_IRQHandler>:
    def_default_handler    USB_IRQHandler
 80001c0:	e7fe      	b.n	80001c0 <USB_IRQHandler>

080001c2 <DMA_IRQHandler>:
    def_default_handler    DMA_IRQHandler
 80001c2:	e7fe      	b.n	80001c2 <DMA_IRQHandler>

080001c4 <UART1_IRQHandler>:
    def_default_handler    UART1_IRQHandler
 80001c4:	e7fe      	b.n	80001c4 <UART1_IRQHandler>

080001c6 <UART2_IRQHandler>:
    def_default_handler    UART2_IRQHandler
 80001c6:	e7fe      	b.n	80001c6 <UART2_IRQHandler>

080001c8 <SSP1_IRQHandler>:
    def_default_handler    SSP1_IRQHandler
 80001c8:	e7fe      	b.n	80001c8 <SSP1_IRQHandler>

080001ca <I2C_IRQHandler>:
    def_default_handler    I2C_IRQHandler
 80001ca:	e7fe      	b.n	80001ca <I2C_IRQHandler>

080001cc <POWER_IRQHandler>:
    def_default_handler    POWER_IRQHandler
 80001cc:	e7fe      	b.n	80001cc <POWER_IRQHandler>

080001ce <WWDG_IRQHandler>:
    def_default_handler    WWDG_IRQHandler
 80001ce:	e7fe      	b.n	80001ce <WWDG_IRQHandler>

080001d0 <Timer1_IRQHandler>:
    def_default_handler    Timer1_IRQHandler
 80001d0:	e7fe      	b.n	80001d0 <Timer1_IRQHandler>

080001d2 <Timer2_IRQHandler>:
    def_default_handler    Timer2_IRQHandler
 80001d2:	e7fe      	b.n	80001d2 <Timer2_IRQHandler>

080001d4 <Timer3_IRQHandler>:
    def_default_handler    Timer3_IRQHandler
 80001d4:	e7fe      	b.n	80001d4 <Timer3_IRQHandler>

080001d6 <ADC_IRQHandler>:
    def_default_handler    ADC_IRQHandler
 80001d6:	e7fe      	b.n	80001d6 <ADC_IRQHandler>

080001d8 <COMPARATOR_IRQHandler>:
    def_default_handler    COMPARATOR_IRQHandler
 80001d8:	e7fe      	b.n	80001d8 <COMPARATOR_IRQHandler>

080001da <SSP2_IRQHandler>:
    def_default_handler    SSP2_IRQHandler
 80001da:	e7fe      	b.n	80001da <SSP2_IRQHandler>

080001dc <BACKUP_IRQHandler>:
    def_default_handler    BACKUP_IRQHandler
 80001dc:	e7fe      	b.n	80001dc <BACKUP_IRQHandler>

080001de <EXT_INT1_IRQHandler>:
    def_default_handler    EXT_INT1_IRQHandler
 80001de:	e7fe      	b.n	80001de <EXT_INT1_IRQHandler>

080001e0 <EXT_INT2_IRQHandler>:
    def_default_handler    EXT_INT2_IRQHandler
 80001e0:	e7fe      	b.n	80001e0 <EXT_INT2_IRQHandler>

080001e2 <EXT_INT3_IRQHandler>:
    def_default_handler    EXT_INT3_IRQHandler
 80001e2:	e7fe      	b.n	80001e2 <EXT_INT3_IRQHandler>

080001e4 <EXT_INT4_IRQHandler>:
    def_default_handler    EXT_INT4_IRQHandler
 80001e4:	e7fe      	b.n	80001e4 <EXT_INT4_IRQHandler>
 80001e6:	bf00      	nop
